; Function Attrs: nounwind uwtable
define hidden void @Curl_xfer_setup1(ptr noundef %0, i32 noundef %1, i64 noundef %2, i1 noundef zeroext %3) local_unnamed_addr #0 {
  %5 = and i32 %1, 1
  %sext = add nsw i32 %5, -1
  %6 = lshr i32 %1, 1
  %7 = and i32 %6, 1
  %sext6 = add nsw i32 %7, -1
  tail call fastcc void @xfer_setup(ptr noundef %0, i32 noundef %sext, i64 noundef %2, i1 noundef zeroext %3, i32 noundef %sext6, i1 noundef zeroext false, i1 noundef zeroext false)
  ret void
}